ccollections
deque
p1
((lp2
I118
aI96
aI67
aI120
aI51
aI1
aI127
aI154
aI255
aI74
aI96
aI79
aI248
aI152
aI54
aI85
aI43
aI229
aI229
aI143
aI235
aI202
aI204
aI78
aI236
aI126
aI98
aI10
aI118
aI200
aI87
aI68
aI185
aI222
aI254
aI221
aI120
aI157
aI207
aI92
aI58
aI120
aI121
aI188
aI10
aI55
aI186
aI104
aI245
aI49
aI130
aI44
aI240
aI127
aI170
aI120
aI208
aI45
aI89
aI81
aI25
aI218
aI163
aI143
aI24
aI184
aI142
aI85
aI226
aI237
aI51
aI15
aI232
aI232
aI146
aI196
aI249
aI67
aI21
aI232
aI10
aI87
aI76
aI164
aI206
aI107
aI128
aI178
aI14
aI158
aI255
aI201
aI126
aI55
aI38
aI186
aI99
aI81
aI164
aI0
aI83
aI29
aI210
aI7
aI17
aI94
aI210
aI33
aI60
aI205
aI121
aI177
aI63
aI177
aI231
aI8
aI30
aI43
aI248
aI154
aI58
aI115
aI252
aI246
aI20
aI142
aI151
aI14
aI115
aI62
aI148
aI124
aI46
aI165
aI39
aI141
aI11
aI85
aI69
aI102
aI175
aI185
aI80
aI83
aI124
aI239
aI14
aI238
aI213
aI150
aI14
aI178
aI47
aI42
aI145
aI65
aI47
aI31
aI205
aI115
aI19
aI215
aI69
aI234
aI7
aI75
aI9
aI196
aI77
aI151
aI2
aI17
aI95
aI180
aI239
aI49
aI69
aI122
aI141
aI13
aI132
aI149
aI115
aI154
aI63
aI175
aI65
aI137
aI61
aI214
aI14
aI0
aI188
aI254
aI235
aI57
aI127
aI229
aI214
aI149
aI19
aI198
aI84
aI162
aI218
aI208
aI251
aI131
aI113
aI204
aI228
aI45
aI17
aI123
aI122
aI71
aI218
aI150
aI68
aI137
aI24
aI1
aI73
aI149
aI140
aI63
aI134
aI171
aI192
aI93
aI119
aI10
aI224
aI152
aI17
aI33
aI246
aI53
aI93
aI80
aI162
aI98
aI85
aI223
aI231
aI225
aI234
aI0
aI202
aI247
aI215
aI225
aI154
aI15
aI150
aI1
aI27
aI71
aI84
aI187
aI211
aI140
aI198
aI200
aI244
aI31
aI128
aI121
aI85
aI7
aI233
aI93
aI69
aI71
aI250
aI98
aI23
aI197
aI140
aI120
aI249
aI56
aI97
aI211
aI139
aI222
aI203
aI78
aI228
aI233
aI223
aI90
aI9
aI87
aI158
aI249
aI75
aI56
aI50
aI29
aI144
aI130
aI173
aI211
aI116
aI33
aI59
aI106
aI102
aI227
aI215
aI93
aI228
aI164
aI74
aI49
aI170
aI28
aI0
aI52
aI73
aI209
aI27
aI90
aI221
aI58
aI245
aI244
aI164
aI221
aI59
aI226
aI220
aI229
aI77
aI215
aI137
aI62
aI234
aI236
aI96
aI106
aI192
aI112
aI82
aI60
aI169
aI92
aI229
aI194
aI6
aI163
aI208
aI158
aI26
aI161
aI223
aI54
aI207
aI182
aI36
aI12
aI231
aI160
aI149
aI70
aI100
aI119
aI106
aI59
aI164
aI75
aI132
aI119
aI255
aI51
aI228
aI129
aI13
aI13
aI209
aI131
aI136
aI209
aI250
aI33
aI232
aI155
aI125
aI239
aI50
aI211
aI231
aI177
aI149
aI92
aI1
aI12
aI150
aI185
aI180
aI98
aI233
aI69
aI35
aI96
aI92
aI111
aI114
aI97
aI63
aI147
aI31
aI188
aI72
aI243
aI119
aI242
aI218
aI10
aI65
aI177
aI185
aI143
aI37
aI92
aI123
aI22
aI52
aI115
aI251
aI26
aI76
aI222
aI163
aI207
aI116
aI76
aI130
aI27
aI204
aI127
aI179
aI23
aI59
aI38
aI10
aI144
aI145
aI28
aI24
aI207
aI159
aI174
aI223
aI64
aI53
aI164
aI153
aI106
aI193
aI98
aI160
aI77
aI204
aI15
aI158
aI236
aI153
aI126
aI26
aI170
aI210
aI33
aI18
aI28
aI161
aI8
aI144
aI125
aI223
aI62
aI36
aI189
aI202
aI167
aI29
aI36
aI127
aI31
aI191
aI149
aI142
aI191
aI18
aI56
aI79
aI178
aI144
aI234
aI103
aI137
aI117
aI129
aI213
aI201
aI170
aI2
aI157
aI170
aI27
aI160
atRp3
.